; Function Attrs: nounwind uwtable
define dso_local void @warn_tok(ptr nocapture noundef readonly %tok, ptr nocapture noundef readonly %fmt, ...) local_unnamed_addr #4 {
entry:
  %ap = alloca [1 x %struct.__va_list_tag], align 16
  call void @llvm.va_start(ptr nonnull %ap)
  %file = getelementptr inbounds %struct.Token, ptr %tok, i64 0, i32 8
  %0 = load ptr, ptr %file, align 16
  %1 = load ptr, ptr %0, align 8
  %contents = getelementptr inbounds %struct.File, ptr %0, i64 0, i32 2
  %2 = load ptr, ptr %contents, align 8
  %line_no = getelementptr inbounds %struct.Token, ptr %tok, i64 0, i32 10
  %3 = load i32, ptr %line_no, align 16
  %loc = getelementptr inbounds %struct.Token, ptr %tok, i64 0, i32 4
  %4 = load ptr, ptr %loc, align 16
  call fastcc void @verror_at(ptr noundef %1, ptr noundef %2, i32 noundef %3, ptr noundef %4, ptr noundef %fmt, ptr noundef nonnull %ap)
  call void @llvm.va_end(ptr nonnull %ap)
  ret void
}